; Function Attrs: nounwind uwtable
define hidden zeroext i1 @SDL_SetSurfaceColorspace_REAL(ptr noundef captures(address_is_null) %0, i32 noundef %1) local_unnamed_addr #2 {
  %.not.i = icmp eq ptr %0, null
  br i1 %.not.i, label %SDL_SurfaceValid.exit.thread, label %SDL_SurfaceValid.exit

SDL_SurfaceValid.exit:                            ; preds = %2
  %3 = getelementptr inbounds nuw i8, ptr %0, i64 40
  %4 = load ptr, ptr %3, align 8
  %5 = icmp eq ptr %4, @SDL_surface_magic
  br i1 %5, label %7, label %SDL_SurfaceValid.exit.thread

SDL_SurfaceValid.exit.thread:                     ; preds = %2, %SDL_SurfaceValid.exit
  %6 = tail call zeroext i1 (ptr, ...) @SDL_SetError_REAL(ptr noundef nonnull @.str, ptr noundef nonnull @.str.5) #10
  br label %9

7:                                                ; preds = %SDL_SurfaceValid.exit
  %8 = getelementptr inbounds nuw i8, ptr %0, i64 64
  store i32 %1, ptr %8, align 8
  br label %9

9:                                                ; preds = %7, %SDL_SurfaceValid.exit.thread
  %.0 = phi i1 [ true, %7 ], [ %6, %SDL_SurfaceValid.exit.thread ]
  ret i1 %.0
}